target datalayout = "e-m:e-p270:32:32-p271:32:32-p272:64:64-i64:64-i128:128-f80:128-n8:16:32:64-S128"
target triple = "x86_64-pc-linux-gnu"

%struct.Vec_Bit_t_ = type { i32, i32, ptr }

; Function Attrs: inlinehint nounwind uwtable
define internal ptr @Vec_BitAlloc(i32 noundef %0) #4 {
  %2 = alloca i32, align 4
  %3 = alloca ptr, align 8
  store i32 %0, ptr %2, align 4, !tbaa !3
  call void @llvm.lifetime.start.p0(i64 8, ptr %3) #11
  %4 = load i32, ptr %2, align 4, !tbaa !3
  %5 = ashr i32 %4, 5
  %6 = load i32, ptr %2, align 4, !tbaa !3
  %7 = and i32 %6, 31
  %8 = icmp sgt i32 %7, 0
  %9 = zext i1 %8 to i32
  %10 = add nsw i32 %5, %9
  store i32 %10, ptr %2, align 4, !tbaa !3
  %11 = call noalias ptr @malloc(i64 noundef 16) #12
  store ptr %11, ptr %3, align 8, !tbaa !15
  %12 = load ptr, ptr %3, align 8, !tbaa !15
  %13 = getelementptr inbounds nuw %struct.Vec_Bit_t_, ptr %12, i32 0, i32 1
  store i32 0, ptr %13, align 4, !tbaa !20
  %14 = load i32, ptr %2, align 4, !tbaa !3
  %15 = mul nsw i32 %14, 32
  %16 = load ptr, ptr %3, align 8, !tbaa !15
  %17 = getelementptr inbounds nuw %struct.Vec_Bit_t_, ptr %16, i32 0, i32 0
  store i32 %15, ptr %17, align 8, !tbaa !76
  %18 = load i32, ptr %2, align 4, !tbaa !3
  %19 = icmp ne i32 %18, 0
  br i1 %19, label %20, label %25

20:                                               ; preds = %1
  %21 = load i32, ptr %2, align 4, !tbaa !3
  %22 = sext i32 %21 to i64
  %23 = mul i64 4, %22
  %24 = call noalias ptr @malloc(i64 noundef %23) #12
  br label %26

25:                                               ; preds = %1
  br label %26

26:                                               ; preds = %25, %20
  %27 = phi ptr [ %24, %20 ], [ null, %25 ]
  %28 = load ptr, ptr %3, align 8, !tbaa !15
  %29 = getelementptr inbounds nuw %struct.Vec_Bit_t_, ptr %28, i32 0, i32 2
  store ptr %27, ptr %29, align 8, !tbaa !23
  %30 = load ptr, ptr %3, align 8, !tbaa !15
  call void @llvm.lifetime.end.p0(i64 8, ptr %3) #11
  ret ptr %30
}

; Function Attrs: inlinehint nounwind uwtable
define internal i32 @Vec_BitEntry(ptr noundef %0, i32 noundef %1) #4 {
  %3 = alloca ptr, align 8
  %4 = alloca i32, align 4
  store ptr %0, ptr %3, align 8, !tbaa !15
  store i32 %1, ptr %4, align 4, !tbaa !3
  %5 = load ptr, ptr %3, align 8, !tbaa !15
  %6 = getelementptr inbounds nuw %struct.Vec_Bit_t_, ptr %5, i32 0, i32 2
  %7 = load ptr, ptr %6, align 8, !tbaa !23
  %8 = load i32, ptr %4, align 4, !tbaa !3
  %9 = ashr i32 %8, 5
  %10 = sext i32 %9 to i64
  %11 = getelementptr inbounds i32, ptr %7, i64 %10
  %12 = load i32, ptr %11, align 4, !tbaa !3
  %13 = load i32, ptr %4, align 4, !tbaa !3
  %14 = and i32 %13, 31
  %15 = ashr i32 %12, %14
  %16 = and i32 %15, 1
  ret i32 %16
}

; Function Attrs: inlinehint nounwind uwtable
define internal void @Vec_BitShrink(ptr noundef %0, i32 noundef %1) #4 {
  %3 = alloca ptr, align 8
  %4 = alloca i32, align 4
  store ptr %0, ptr %3, align 8, !tbaa !15
  store i32 %1, ptr %4, align 4, !tbaa !3
  %5 = load i32, ptr %4, align 4, !tbaa !3
  %6 = load ptr, ptr %3, align 8, !tbaa !15
  %7 = getelementptr inbounds nuw %struct.Vec_Bit_t_, ptr %6, i32 0, i32 1
  store i32 %5, ptr %7, align 4, !tbaa !20
  ret void
}

; Function Attrs: inlinehint nounwind uwtable
define internal void @Vec_BitWriteEntry(ptr noundef %0, i32 noundef %1, i32 noundef %2) #4 {
  %4 = alloca ptr, align 8
  %5 = alloca i32, align 4
  %6 = alloca i32, align 4
  store ptr %0, ptr %4, align 8, !tbaa !15
  store i32 %1, ptr %5, align 4, !tbaa !3
  store i32 %2, ptr %6, align 4, !tbaa !3
  %7 = load i32, ptr %6, align 4, !tbaa !3
  %8 = icmp eq i32 %7, 1
  br i1 %8, label %9, label %22

9:                                                ; preds = %3
  %10 = load i32, ptr %5, align 4, !tbaa !3
  %11 = and i32 %10, 31
  %12 = shl i32 1, %11
  %13 = load ptr, ptr %4, align 8, !tbaa !15
  %14 = getelementptr inbounds nuw %struct.Vec_Bit_t_, ptr %13, i32 0, i32 2
  %15 = load ptr, ptr %14, align 8, !tbaa !23
  %16 = load i32, ptr %5, align 4, !tbaa !3
  %17 = ashr i32 %16, 5
  %18 = sext i32 %17 to i64
  %19 = getelementptr inbounds i32, ptr %15, i64 %18
  %20 = load i32, ptr %19, align 4, !tbaa !3
  %21 = or i32 %20, %12
  store i32 %21, ptr %19, align 4, !tbaa !3
  br label %41

22:                                               ; preds = %3
  %23 = load i32, ptr %6, align 4, !tbaa !3
  %24 = icmp eq i32 %23, 0
  br i1 %24, label %25, label %39

25:                                               ; preds = %22
  %26 = load i32, ptr %5, align 4, !tbaa !3
  %27 = and i32 %26, 31
  %28 = shl i32 1, %27
  %29 = xor i32 %28, -1
  %30 = load ptr, ptr %4, align 8, !tbaa !15
  %31 = getelementptr inbounds nuw %struct.Vec_Bit_t_, ptr %30, i32 0, i32 2
  %32 = load ptr, ptr %31, align 8, !tbaa !23
  %33 = load i32, ptr %5, align 4, !tbaa !3
  %34 = ashr i32 %33, 5
  %35 = sext i32 %34 to i64
  %36 = getelementptr inbounds i32, ptr %32, i64 %35
  %37 = load i32, ptr %36, align 4, !tbaa !3
  %38 = and i32 %37, %29
  store i32 %38, ptr %36, align 4, !tbaa !3
  br label %40

39:                                               ; preds = %22
  br label %40

40:                                               ; preds = %39, %25
  br label %41

41:                                               ; preds = %40, %9
  ret void
}

; Function Attrs: inlinehint nounwind uwtable
define internal ptr @Vec_BitStartFull(i32 noundef %0) #4 {
  %2 = alloca i32, align 4
  %3 = alloca ptr, align 8
  store i32 %0, ptr %2, align 4, !tbaa !3
  call void @llvm.lifetime.start.p0(i64 8, ptr %3) #11
  %4 = load i32, ptr %2, align 4, !tbaa !3
  %5 = ashr i32 %4, 5
  %6 = load i32, ptr %2, align 4, !tbaa !3
  %7 = and i32 %6, 31
  %8 = icmp sgt i32 %7, 0
  %9 = zext i1 %8 to i32
  %10 = add nsw i32 %5, %9
  store i32 %10, ptr %2, align 4, !tbaa !3
  %11 = load i32, ptr %2, align 4, !tbaa !3
  %12 = mul nsw i32 %11, 32
  %13 = call ptr @Vec_BitAlloc(i32 noundef %12)
  store ptr %13, ptr %3, align 8, !tbaa !15
  %14 = load i32, ptr %2, align 4, !tbaa !3
  %15 = mul nsw i32 %14, 32
  %16 = load ptr, ptr %3, align 8, !tbaa !15
  %17 = getelementptr inbounds nuw %struct.Vec_Bit_t_, ptr %16, i32 0, i32 1
  store i32 %15, ptr %17, align 4, !tbaa !20
  %18 = load ptr, ptr %3, align 8, !tbaa !15
  %19 = getelementptr inbounds nuw %struct.Vec_Bit_t_, ptr %18, i32 0, i32 2
  %20 = load ptr, ptr %19, align 8, !tbaa !23
  %21 = load i32, ptr %2, align 4, !tbaa !3
  %22 = sext i32 %21 to i64
  %23 = mul i64 4, %22
  call void @llvm.memset.p0.i64(ptr align 4 %20, i8 -1, i64 %23, i1 false)
  %24 = load ptr, ptr %3, align 8, !tbaa !15
  call void @llvm.lifetime.end.p0(i64 8, ptr %3) #11
  ret ptr %24
}

; Function Attrs: inlinehint nounwind uwtable
define internal i32 @Abc_MaxInt(i32 noundef %0, i32 noundef %1) #4 {
  %3 = alloca i32, align 4
  %4 = alloca i32, align 4
  store i32 %0, ptr %3, align 4, !tbaa !3
  store i32 %1, ptr %4, align 4, !tbaa !3
  %5 = load i32, ptr %3, align 4, !tbaa !3
  %6 = load i32, ptr %4, align 4, !tbaa !3
  %7 = icmp sgt i32 %5, %6
  br i1 %7, label %8, label %10

8:                                                ; preds = %2
  %9 = load i32, ptr %3, align 4, !tbaa !3
  br label %12

10:                                               ; preds = %2
  %11 = load i32, ptr %4, align 4, !tbaa !3
  br label %12

12:                                               ; preds = %10, %8
  %13 = phi i32 [ %9, %8 ], [ %11, %10 ]
  ret i32 %13
}

; Function Attrs: nounwind uwtable
define ptr @Pla_ManPrimesTable(i32 noundef %0) #0 {
  %2 = alloca i32, align 4
  %3 = alloca i32, align 4
  %4 = alloca i32, align 4
  %5 = alloca i32, align 4
  %6 = alloca ptr, align 8
  store i32 %0, ptr %2, align 4, !tbaa !3
  call void @llvm.lifetime.start.p0(i64 4, ptr %3) #11
  call void @llvm.lifetime.start.p0(i64 4, ptr %4) #11
  call void @llvm.lifetime.start.p0(i64 4, ptr %5) #11
  %7 = load i32, ptr %2, align 4, !tbaa !3
  %8 = shl i32 1, %7
  store i32 %8, ptr %5, align 4, !tbaa !3
  call void @llvm.lifetime.start.p0(i64 8, ptr %6) #11
  %9 = load i32, ptr %5, align 4, !tbaa !3
  %10 = call i32 @Abc_MaxInt(i32 noundef 64, i32 noundef %9)
  %11 = call ptr @Vec_BitStartFull(i32 noundef %10)
  store ptr %11, ptr %6, align 8, !tbaa !15
  %12 = load i32, ptr %5, align 4, !tbaa !3
  store i32 %12, ptr %3, align 4, !tbaa !3
  br label %13

13:                                               ; preds = %19, %1
  %14 = load i32, ptr %3, align 4, !tbaa !3
  %15 = icmp slt i32 %14, 64
  br i1 %15, label %16, label %22

16:                                               ; preds = %13
  %17 = load ptr, ptr %6, align 8, !tbaa !15
  %18 = load i32, ptr %3, align 4, !tbaa !3
  call void @Vec_BitWriteEntry(ptr noundef %17, i32 noundef %18, i32 noundef 0)
  br label %19

19:                                               ; preds = %16
  %20 = load i32, ptr %3, align 4, !tbaa !3
  %21 = add nsw i32 %20, 1
  store i32 %21, ptr %3, align 4, !tbaa !3
  br label %13, !llvm.loop !17

22:                                               ; preds = %13
  %23 = load ptr, ptr %6, align 8, !tbaa !15
  %24 = load i32, ptr %5, align 4, !tbaa !3
  call void @Vec_BitShrink(ptr noundef %23, i32 noundef %24)
  %25 = load ptr, ptr %6, align 8, !tbaa !15
  call void @Vec_BitWriteEntry(ptr noundef %25, i32 noundef 0, i32 noundef 0)
  %26 = load ptr, ptr %6, align 8, !tbaa !15
  call void @Vec_BitWriteEntry(ptr noundef %26, i32 noundef 1, i32 noundef 0)
  store i32 2, ptr %4, align 4, !tbaa !3
  br label %27

27:                                               ; preds = %52, %22
  %28 = load i32, ptr %4, align 4, !tbaa !3
  %29 = load i32, ptr %5, align 4, !tbaa !3
  %30 = icmp slt i32 %28, %29
  br i1 %30, label %31, label %55

31:                                               ; preds = %27
  %32 = load ptr, ptr %6, align 8, !tbaa !15
  %33 = load i32, ptr %4, align 4, !tbaa !3
  %34 = call i32 @Vec_BitEntry(ptr noundef %32, i32 noundef %33)
  %35 = icmp ne i32 %34, 0
  br i1 %35, label %36, label %51

36:                                               ; preds = %31
  %37 = load i32, ptr %4, align 4, !tbaa !3
  %38 = mul nsw i32 2, %37
  store i32 %38, ptr %3, align 4, !tbaa !3
  br label %39

39:                                               ; preds = %46, %36
  %40 = load i32, ptr %3, align 4, !tbaa !3
  %41 = load i32, ptr %5, align 4, !tbaa !3
  %42 = icmp slt i32 %40, %41
  br i1 %42, label %43, label %50

43:                                               ; preds = %39
  %44 = load ptr, ptr %6, align 8, !tbaa !15
  %45 = load i32, ptr %3, align 4, !tbaa !3
  call void @Vec_BitWriteEntry(ptr noundef %44, i32 noundef %45, i32 noundef 0)
  br label %46

46:                                               ; preds = %43
  %47 = load i32, ptr %4, align 4, !tbaa !3
  %48 = load i32, ptr %3, align 4, !tbaa !3
  %49 = add nsw i32 %48, %47
  store i32 %49, ptr %3, align 4, !tbaa !3
  br label %39, !llvm.loop !18

50:                                               ; preds = %39
  br label %51

51:                                               ; preds = %50, %31
  br label %52

52:                                               ; preds = %51
  %53 = load i32, ptr %4, align 4, !tbaa !3
  %54 = add nsw i32 %53, 1
  store i32 %54, ptr %4, align 4, !tbaa !3
  br label %27, !llvm.loop !19

55:                                               ; preds = %27
  %56 = load ptr, ptr %6, align 8, !tbaa !15
  call void @llvm.lifetime.end.p0(i64 8, ptr %6) #11
  call void @llvm.lifetime.end.p0(i64 4, ptr %5) #11
  call void @llvm.lifetime.end.p0(i64 4, ptr %4) #11
  call void @llvm.lifetime.end.p0(i64 4, ptr %3) #11
  ret ptr %56
}