; Function Attrs: nofree nounwind memory(readwrite, argmem: none) uwtable
define noalias noundef ptr @Pla_ManPrimesTable(i32 noundef %0) local_unnamed_addr #4 {
Vec_BitStartFull.exit:
  %1 = shl nuw i32 1, %0
  %2 = tail call noundef i32 @llvm.smax.i32(i32 %1, i32 64)
  %3 = lshr i32 %2, 5
  %4 = and i32 %2, 31
  %5 = icmp ne i32 %4, 0
  %6 = zext i1 %5 to i32
  %7 = add nuw nsw i32 %3, %6
  %8 = tail call noalias dereferenceable_or_null(16) ptr @malloc(i64 noundef 16) #19
  %9 = shl nuw nsw i32 %7, 5
  store i32 %9, ptr %8, align 8, !tbaa !8
  %10 = shl nuw nsw i32 %7, 2
  %11 = zext nneg i32 %10 to i64
  %12 = tail call noalias ptr @malloc(i64 noundef %11) #19
  %13 = getelementptr inbounds nuw i8, ptr %8, i64 4
  %14 = getelementptr inbounds nuw i8, ptr %8, i64 8
  store ptr %12, ptr %14, align 8, !tbaa !15
  tail call void @llvm.memset.p0.i64(ptr align 4 %12, i8 -1, i64 %11, i1 false)
  %15 = icmp slt i32 %1, 64
  br i1 %15, label %.lr.ph, label %._crit_edge.thread

._crit_edge.thread:                               ; preds = %Vec_BitStartFull.exit
  store i32 %1, ptr %13, align 4, !tbaa !16
  %16 = load i32, ptr %12, align 4, !tbaa !17
  %17 = and i32 %16, -4
  store i32 %17, ptr %12, align 4, !tbaa !17
  br label %.lr.ph32.preheader

.lr.ph:                                           ; preds = %Vec_BitStartFull.exit, %.lr.ph
  %.025 = phi i32 [ %26, %.lr.ph ], [ %1, %Vec_BitStartFull.exit ]
  %18 = and i32 %.025, 31
  %19 = shl nuw i32 1, %18
  %20 = xor i32 %19, -1
  %21 = ashr i32 %.025, 5
  %22 = sext i32 %21 to i64
  %23 = getelementptr inbounds i32, ptr %12, i64 %22
  %24 = load i32, ptr %23, align 4, !tbaa !17
  %25 = and i32 %24, %20
  store i32 %25, ptr %23, align 4, !tbaa !17
  %26 = add i32 %.025, 1
  %exitcond.not = icmp eq i32 %26, 64
  br i1 %exitcond.not, label %._crit_edge, label %.lr.ph, !llvm.loop !18

._crit_edge:                                      ; preds = %.lr.ph
  store i32 %1, ptr %13, align 4, !tbaa !16
  %27 = load i32, ptr %12, align 4, !tbaa !17
  %28 = and i32 %27, -4
  store i32 %28, ptr %12, align 4, !tbaa !17
  %29 = icmp sgt i32 %1, 2
  br i1 %29, label %.lr.ph32.preheader, label %._crit_edge33

.lr.ph32.preheader:                               ; preds = %._crit_edge.thread, %._crit_edge
  br label %.lr.ph32

.lr.ph32:                                         ; preds = %.lr.ph32.preheader, %.loopexit
  %.02329 = phi i32 [ %49, %.loopexit ], [ 2, %.lr.ph32.preheader ]
  %30 = lshr i32 %.02329, 5
  %31 = zext nneg i32 %30 to i64
  %32 = getelementptr inbounds nuw i32, ptr %12, i64 %31
  %33 = load i32, ptr %32, align 4, !tbaa !17
  %34 = and i32 %.02329, 31
  %35 = shl nuw i32 1, %34
  %36 = and i32 %33, %35
  %.not = icmp ne i32 %36, 0
  %37 = shl nuw nsw i32 %.02329, 1
  %38 = icmp slt i32 %37, %1
  %or.cond = select i1 %.not, i1 %38, i1 false
  br i1 %or.cond, label %.lr.ph28, label %.loopexit

.lr.ph28:                                         ; preds = %.lr.ph32, %.lr.ph28
  %.126 = phi i32 [ %47, %.lr.ph28 ], [ %37, %.lr.ph32 ]
  %39 = and i32 %.126, 31
  %40 = shl nuw i32 1, %39
  %41 = xor i32 %40, -1
  %42 = lshr i32 %.126, 5
  %43 = zext nneg i32 %42 to i64
  %44 = getelementptr inbounds nuw i32, ptr %12, i64 %43
  %45 = load i32, ptr %44, align 4, !tbaa !17
  %46 = and i32 %45, %41
  store i32 %46, ptr %44, align 4, !tbaa !17
  %47 = add nuw nsw i32 %.126, %.02329
  %48 = icmp slt i32 %47, %1
  br i1 %48, label %.lr.ph28, label %.loopexit, !llvm.loop !19

.loopexit:                                        ; preds = %.lr.ph28, %.lr.ph32
  %49 = add nuw nsw i32 %.02329, 1
  %exitcond35.not = icmp eq i32 %49, %1
  br i1 %exitcond35.not, label %._crit_edge33, label %.lr.ph32, !llvm.loop !20

._crit_edge33:                                    ; preds = %.loopexit, %._crit_edge
  ret ptr %8
}